target datalayout = "e-m:e-p270:32:32-p271:32:32-p272:64:64-i64:64-i128:128-f80:128-n8:16:32:64-S128"
target triple = "x86_64-pc-linux-gnu"

%struct.FFDemuxSubtitlesQueue = type { ptr, i32, i32, i32, i32, i32 }
%struct.AVPacket = type { ptr, i64, i64, ptr, i32, i32, i32, ptr, i32, i64, i64, ptr, ptr, %struct.AVRational }
%struct.AVRational = type { i32, i32 }

@.str.5 = private unnamed_addr constant [40 x i8] c"Dropping %d duplicated subtitle events\0A\00", align 1

; Function Attrs: nounwind uwtable
define internal void @drop_dups(ptr noundef %0, ptr noundef %1) #0 {
  %3 = alloca ptr, align 8
  %4 = alloca ptr, align 8
  %5 = alloca i32, align 4
  %6 = alloca i32, align 4
  %7 = alloca i32, align 4
  %8 = alloca ptr, align 8
  store ptr %0, ptr %3, align 8, !tbaa !4
  store ptr %1, ptr %4, align 8, !tbaa !4
  call void @llvm.lifetime.start.p0(i64 4, ptr %5) #9
  call void @llvm.lifetime.start.p0(i64 4, ptr %6) #9
  store i32 0, ptr %6, align 4, !tbaa !21
  store i32 1, ptr %5, align 4, !tbaa !21
  br label %9

9:                                                ; preds = %118, %2
  %10 = load i32, ptr %5, align 4, !tbaa !21
  %11 = load ptr, ptr %4, align 8, !tbaa !4
  %12 = getelementptr inbounds nuw %struct.FFDemuxSubtitlesQueue, ptr %11, i32 0, i32 1
  %13 = load i32, ptr %12, align 8, !tbaa !29
  %14 = icmp slt i32 %10, %13
  br i1 %14, label %15, label %121

15:                                               ; preds = %9
  call void @llvm.lifetime.start.p0(i64 4, ptr %7) #9
  %16 = load i32, ptr %5, align 4, !tbaa !21
  %17 = sub nsw i32 %16, 1
  %18 = load i32, ptr %6, align 4, !tbaa !21
  %19 = sub nsw i32 %17, %18
  store i32 %19, ptr %7, align 4, !tbaa !21
  call void @llvm.lifetime.start.p0(i64 8, ptr %8) #9
  %20 = load ptr, ptr %4, align 8, !tbaa !4
  %21 = getelementptr inbounds nuw %struct.FFDemuxSubtitlesQueue, ptr %20, i32 0, i32 0
  %22 = load ptr, ptr %21, align 8, !tbaa !33
  %23 = load i32, ptr %7, align 4, !tbaa !21
  %24 = sext i32 %23 to i64
  %25 = getelementptr inbounds ptr, ptr %22, i64 %24
  %26 = load ptr, ptr %25, align 8, !tbaa !34
  store ptr %26, ptr %8, align 8, !tbaa !34
  %27 = load ptr, ptr %4, align 8, !tbaa !4
  %28 = getelementptr inbounds nuw %struct.FFDemuxSubtitlesQueue, ptr %27, i32 0, i32 0
  %29 = load ptr, ptr %28, align 8, !tbaa !33
  %30 = load i32, ptr %5, align 4, !tbaa !21
  %31 = sext i32 %30 to i64
  %32 = getelementptr inbounds ptr, ptr %29, i64 %31
  %33 = load ptr, ptr %32, align 8, !tbaa !34
  %34 = getelementptr inbounds nuw %struct.AVPacket, ptr %33, i32 0, i32 1
  %35 = load i64, ptr %34, align 8, !tbaa !45
  %36 = load ptr, ptr %8, align 8, !tbaa !34
  %37 = getelementptr inbounds nuw %struct.AVPacket, ptr %36, i32 0, i32 1
  %38 = load i64, ptr %37, align 8, !tbaa !45
  %39 = icmp eq i64 %35, %38
  br i1 %39, label %40, label %92

40:                                               ; preds = %15
  %41 = load ptr, ptr %4, align 8, !tbaa !4
  %42 = getelementptr inbounds nuw %struct.FFDemuxSubtitlesQueue, ptr %41, i32 0, i32 0
  %43 = load ptr, ptr %42, align 8, !tbaa !33
  %44 = load i32, ptr %5, align 4, !tbaa !21
  %45 = sext i32 %44 to i64
  %46 = getelementptr inbounds ptr, ptr %43, i64 %45
  %47 = load ptr, ptr %46, align 8, !tbaa !34
  %48 = getelementptr inbounds nuw %struct.AVPacket, ptr %47, i32 0, i32 9
  %49 = load i64, ptr %48, align 8, !tbaa !53
  %50 = load ptr, ptr %8, align 8, !tbaa !34
  %51 = getelementptr inbounds nuw %struct.AVPacket, ptr %50, i32 0, i32 9
  %52 = load i64, ptr %51, align 8, !tbaa !53
  %53 = icmp eq i64 %49, %52
  br i1 %53, label %54, label %92

54:                                               ; preds = %40
  %55 = load ptr, ptr %4, align 8, !tbaa !4
  %56 = getelementptr inbounds nuw %struct.FFDemuxSubtitlesQueue, ptr %55, i32 0, i32 0
  %57 = load ptr, ptr %56, align 8, !tbaa !33
  %58 = load i32, ptr %5, align 4, !tbaa !21
  %59 = sext i32 %58 to i64
  %60 = getelementptr inbounds ptr, ptr %57, i64 %59
  %61 = load ptr, ptr %60, align 8, !tbaa !34
  %62 = getelementptr inbounds nuw %struct.AVPacket, ptr %61, i32 0, i32 5
  %63 = load i32, ptr %62, align 4, !tbaa !57
  %64 = load ptr, ptr %8, align 8, !tbaa !34
  %65 = getelementptr inbounds nuw %struct.AVPacket, ptr %64, i32 0, i32 5
  %66 = load i32, ptr %65, align 4, !tbaa !57
  %67 = icmp eq i32 %63, %66
  br i1 %67, label %68, label %92

68:                                               ; preds = %54
  %69 = load ptr, ptr %4, align 8, !tbaa !4
  %70 = getelementptr inbounds nuw %struct.FFDemuxSubtitlesQueue, ptr %69, i32 0, i32 0
  %71 = load ptr, ptr %70, align 8, !tbaa !33
  %72 = load i32, ptr %5, align 4, !tbaa !21
  %73 = sext i32 %72 to i64
  %74 = getelementptr inbounds ptr, ptr %71, i64 %73
  %75 = load ptr, ptr %74, align 8, !tbaa !34
  %76 = getelementptr inbounds nuw %struct.AVPacket, ptr %75, i32 0, i32 3
  %77 = load ptr, ptr %76, align 8, !tbaa !41
  %78 = load ptr, ptr %8, align 8, !tbaa !34
  %79 = getelementptr inbounds nuw %struct.AVPacket, ptr %78, i32 0, i32 3
  %80 = load ptr, ptr %79, align 8, !tbaa !41
  %81 = call i32 @strcmp(ptr noundef %77, ptr noundef %80) #10
  %82 = icmp ne i32 %81, 0
  br i1 %82, label %92, label %83

83:                                               ; preds = %68
  %84 = load ptr, ptr %4, align 8, !tbaa !4
  %85 = getelementptr inbounds nuw %struct.FFDemuxSubtitlesQueue, ptr %84, i32 0, i32 0
  %86 = load ptr, ptr %85, align 8, !tbaa !33
  %87 = load i32, ptr %5, align 4, !tbaa !21
  %88 = sext i32 %87 to i64
  %89 = getelementptr inbounds ptr, ptr %86, i64 %88
  call void @av_packet_free(ptr noundef %89)
  %90 = load i32, ptr %6, align 4, !tbaa !21
  %91 = add nsw i32 %90, 1
  store i32 %91, ptr %6, align 4, !tbaa !21
  br label %117

92:                                               ; preds = %68, %54, %40, %15
  %93 = load i32, ptr %6, align 4, !tbaa !21
  %94 = icmp ne i32 %93, 0
  br i1 %94, label %95, label %116

95:                                               ; preds = %92
  %96 = load ptr, ptr %4, align 8, !tbaa !4
  %97 = getelementptr inbounds nuw %struct.FFDemuxSubtitlesQueue, ptr %96, i32 0, i32 0
  %98 = load ptr, ptr %97, align 8, !tbaa !33
  %99 = load i32, ptr %5, align 4, !tbaa !21
  %100 = sext i32 %99 to i64
  %101 = getelementptr inbounds ptr, ptr %98, i64 %100
  %102 = load ptr, ptr %101, align 8, !tbaa !34
  %103 = load ptr, ptr %4, align 8, !tbaa !4
  %104 = getelementptr inbounds nuw %struct.FFDemuxSubtitlesQueue, ptr %103, i32 0, i32 0
  %105 = load ptr, ptr %104, align 8, !tbaa !33
  %106 = load i32, ptr %7, align 4, !tbaa !21
  %107 = add nsw i32 %106, 1
  %108 = sext i32 %107 to i64
  %109 = getelementptr inbounds ptr, ptr %105, i64 %108
  store ptr %102, ptr %109, align 8, !tbaa !34
  %110 = load ptr, ptr %4, align 8, !tbaa !4
  %111 = getelementptr inbounds nuw %struct.FFDemuxSubtitlesQueue, ptr %110, i32 0, i32 0
  %112 = load ptr, ptr %111, align 8, !tbaa !33
  %113 = load i32, ptr %5, align 4, !tbaa !21
  %114 = sext i32 %113 to i64
  %115 = getelementptr inbounds ptr, ptr %112, i64 %114
  store ptr null, ptr %115, align 8, !tbaa !34
  br label %116

116:                                              ; preds = %95, %92
  br label %117

117:                                              ; preds = %116, %83
  call void @llvm.lifetime.end.p0(i64 8, ptr %8) #9
  call void @llvm.lifetime.end.p0(i64 4, ptr %7) #9
  br label %118

118:                                              ; preds = %117
  %119 = load i32, ptr %5, align 4, !tbaa !21
  %120 = add nsw i32 %119, 1
  store i32 %120, ptr %5, align 4, !tbaa !21
  br label %9, !llvm.loop !58

121:                                              ; preds = %9
  %122 = load i32, ptr %6, align 4, !tbaa !21
  %123 = icmp ne i32 %122, 0
  br i1 %123, label %124, label %132

124:                                              ; preds = %121
  %125 = load i32, ptr %6, align 4, !tbaa !21
  %126 = load ptr, ptr %4, align 8, !tbaa !4
  %127 = getelementptr inbounds nuw %struct.FFDemuxSubtitlesQueue, ptr %126, i32 0, i32 1
  %128 = load i32, ptr %127, align 8, !tbaa !29
  %129 = sub nsw i32 %128, %125
  store i32 %129, ptr %127, align 8, !tbaa !29
  %130 = load ptr, ptr %3, align 8, !tbaa !4
  %131 = load i32, ptr %6, align 4, !tbaa !21
  call void (ptr, i32, ptr, ...) @av_log(ptr noundef %130, i32 noundef 24, ptr noundef @.str.5, i32 noundef %131)
  br label %132

132:                                              ; preds = %124, %121
  call void @llvm.lifetime.end.p0(i64 4, ptr %6) #9
  call void @llvm.lifetime.end.p0(i64 4, ptr %5) #9
  ret void
}

; Function Attrs: nounwind uwtable
define void @ff_subtitles_queue_finalize(ptr noundef %0, ptr noundef %1) #0 {
  %3 = alloca ptr, align 8
  %4 = alloca ptr, align 8
  %5 = alloca i32, align 4
  %6 = alloca i32, align 4
  store ptr %0, ptr %3, align 8, !tbaa !4
  store ptr %1, ptr %4, align 8, !tbaa !4
  call void @llvm.lifetime.start.p0(i64 4, ptr %5) #9
  %7 = load ptr, ptr %4, align 8, !tbaa !4
  %8 = getelementptr inbounds nuw %struct.FFDemuxSubtitlesQueue, ptr %7, i32 0, i32 1
  %9 = load i32, ptr %8, align 8, !tbaa !29
  %10 = icmp ne i32 %9, 0
  br i1 %10, label %12, label %11

11:                                               ; preds = %2
  store i32 1, ptr %6, align 4
  br label %113

12:                                               ; preds = %2
  %13 = load ptr, ptr %4, align 8, !tbaa !4
  %14 = getelementptr inbounds nuw %struct.FFDemuxSubtitlesQueue, ptr %13, i32 0, i32 0
  %15 = load ptr, ptr %14, align 8, !tbaa !33
  %16 = load ptr, ptr %4, align 8, !tbaa !4
  %17 = getelementptr inbounds nuw %struct.FFDemuxSubtitlesQueue, ptr %16, i32 0, i32 1
  %18 = load i32, ptr %17, align 8, !tbaa !29
  %19 = sext i32 %18 to i64
  %20 = load ptr, ptr %4, align 8, !tbaa !4
  %21 = getelementptr inbounds nuw %struct.FFDemuxSubtitlesQueue, ptr %20, i32 0, i32 4
  %22 = load i32, ptr %21, align 4, !tbaa !52
  %23 = icmp eq i32 %22, 0
  %24 = select i1 %23, ptr @cmp_pkt_sub_ts_pos, ptr @cmp_pkt_sub_pos_ts
  call void @qsort(ptr noundef %15, i64 noundef %19, i64 noundef 8, ptr noundef %24)
  store i32 0, ptr %5, align 4, !tbaa !21
  br label %25

25:                                               ; preds = %101, %12
  %26 = load i32, ptr %5, align 4, !tbaa !21
  %27 = load ptr, ptr %4, align 8, !tbaa !4
  %28 = getelementptr inbounds nuw %struct.FFDemuxSubtitlesQueue, ptr %27, i32 0, i32 1
  %29 = load i32, ptr %28, align 8, !tbaa !29
  %30 = icmp slt i32 %26, %29
  br i1 %30, label %31, label %104

31:                                               ; preds = %25
  %32 = load ptr, ptr %4, align 8, !tbaa !4
  %33 = getelementptr inbounds nuw %struct.FFDemuxSubtitlesQueue, ptr %32, i32 0, i32 0
  %34 = load ptr, ptr %33, align 8, !tbaa !33
  %35 = load i32, ptr %5, align 4, !tbaa !21
  %36 = sext i32 %35 to i64
  %37 = getelementptr inbounds ptr, ptr %34, i64 %36
  %38 = load ptr, ptr %37, align 8, !tbaa !34
  %39 = getelementptr inbounds nuw %struct.AVPacket, ptr %38, i32 0, i32 9
  %40 = load i64, ptr %39, align 8, !tbaa !53
  %41 = icmp slt i64 %40, 0
  br i1 %41, label %42, label %100

42:                                               ; preds = %31
  %43 = load i32, ptr %5, align 4, !tbaa !21
  %44 = load ptr, ptr %4, align 8, !tbaa !4
  %45 = getelementptr inbounds nuw %struct.FFDemuxSubtitlesQueue, ptr %44, i32 0, i32 1
  %46 = load i32, ptr %45, align 8, !tbaa !29
  %47 = sub nsw i32 %46, 1
  %48 = icmp slt i32 %43, %47
  br i1 %48, label %49, label %100

49:                                               ; preds = %42
  %50 = load ptr, ptr %4, align 8, !tbaa !4
  %51 = getelementptr inbounds nuw %struct.FFDemuxSubtitlesQueue, ptr %50, i32 0, i32 0
  %52 = load ptr, ptr %51, align 8, !tbaa !33
  %53 = load i32, ptr %5, align 4, !tbaa !21
  %54 = add nsw i32 %53, 1
  %55 = sext i32 %54 to i64
  %56 = getelementptr inbounds ptr, ptr %52, i64 %55
  %57 = load ptr, ptr %56, align 8, !tbaa !34
  %58 = getelementptr inbounds nuw %struct.AVPacket, ptr %57, i32 0, i32 1
  %59 = load i64, ptr %58, align 8, !tbaa !45
  %60 = load ptr, ptr %4, align 8, !tbaa !4
  %61 = getelementptr inbounds nuw %struct.FFDemuxSubtitlesQueue, ptr %60, i32 0, i32 0
  %62 = load ptr, ptr %61, align 8, !tbaa !33
  %63 = load i32, ptr %5, align 4, !tbaa !21
  %64 = sext i32 %63 to i64
  %65 = getelementptr inbounds ptr, ptr %62, i64 %64
  %66 = load ptr, ptr %65, align 8, !tbaa !34
  %67 = getelementptr inbounds nuw %struct.AVPacket, ptr %66, i32 0, i32 1
  %68 = load i64, ptr %67, align 8, !tbaa !45
  %69 = sub i64 %59, %68
  %70 = icmp ule i64 %69, 9223372036854775807
  br i1 %70, label %71, label %100

71:                                               ; preds = %49
  %72 = load ptr, ptr %4, align 8, !tbaa !4
  %73 = getelementptr inbounds nuw %struct.FFDemuxSubtitlesQueue, ptr %72, i32 0, i32 0
  %74 = load ptr, ptr %73, align 8, !tbaa !33
  %75 = load i32, ptr %5, align 4, !tbaa !21
  %76 = add nsw i32 %75, 1
  %77 = sext i32 %76 to i64
  %78 = getelementptr inbounds ptr, ptr %74, i64 %77
  %79 = load ptr, ptr %78, align 8, !tbaa !34
  %80 = getelementptr inbounds nuw %struct.AVPacket, ptr %79, i32 0, i32 1
  %81 = load i64, ptr %80, align 8, !tbaa !45
  %82 = load ptr, ptr %4, align 8, !tbaa !4
  %83 = getelementptr inbounds nuw %struct.FFDemuxSubtitlesQueue, ptr %82, i32 0, i32 0
  %84 = load ptr, ptr %83, align 8, !tbaa !33
  %85 = load i32, ptr %5, align 4, !tbaa !21
  %86 = sext i32 %85 to i64
  %87 = getelementptr inbounds ptr, ptr %84, i64 %86
  %88 = load ptr, ptr %87, align 8, !tbaa !34
  %89 = getelementptr inbounds nuw %struct.AVPacket, ptr %88, i32 0, i32 1
  %90 = load i64, ptr %89, align 8, !tbaa !45
  %91 = sub nsw i64 %81, %90
  %92 = load ptr, ptr %4, align 8, !tbaa !4
  %93 = getelementptr inbounds nuw %struct.FFDemuxSubtitlesQueue, ptr %92, i32 0, i32 0
  %94 = load ptr, ptr %93, align 8, !tbaa !33
  %95 = load i32, ptr %5, align 4, !tbaa !21
  %96 = sext i32 %95 to i64
  %97 = getelementptr inbounds ptr, ptr %94, i64 %96
  %98 = load ptr, ptr %97, align 8, !tbaa !34
  %99 = getelementptr inbounds nuw %struct.AVPacket, ptr %98, i32 0, i32 9
  store i64 %91, ptr %99, align 8, !tbaa !53
  br label %100

100:                                              ; preds = %71, %49, %42, %31
  br label %101

101:                                              ; preds = %100
  %102 = load i32, ptr %5, align 4, !tbaa !21
  %103 = add nsw i32 %102, 1
  store i32 %103, ptr %5, align 4, !tbaa !21
  br label %25, !llvm.loop !54

104:                                              ; preds = %25
  %105 = load ptr, ptr %4, align 8, !tbaa !4
  %106 = getelementptr inbounds nuw %struct.FFDemuxSubtitlesQueue, ptr %105, i32 0, i32 5
  %107 = load i32, ptr %106, align 8, !tbaa !55
  %108 = icmp ne i32 %107, 0
  br i1 %108, label %112, label %109

109:                                              ; preds = %104
  %110 = load ptr, ptr %3, align 8, !tbaa !4
  %111 = load ptr, ptr %4, align 8, !tbaa !4
  call void @drop_dups(ptr noundef %110, ptr noundef %111)
  br label %112

112:                                              ; preds = %109, %104
  store i32 0, ptr %6, align 4
  br label %113

113:                                              ; preds = %112, %11
  call void @llvm.lifetime.end.p0(i64 4, ptr %5) #9
  %114 = load i32, ptr %6, align 4
  switch i32 %114, label %116 [
    i32 0, label %115
    i32 1, label %115
  ]

115:                                              ; preds = %113, %113
  ret void

116:                                              ; preds = %113
  unreachable
}