; Function Attrs: nounwind uwtable
define void @ff_subtitles_queue_finalize(ptr noundef %0, ptr noundef captures(none) %1) local_unnamed_addr #0 {
  %3 = getelementptr inbounds nuw i8, ptr %1, i64 8
  %4 = load i32, ptr %3, align 8, !tbaa !23
  %.not = icmp eq i32 %4, 0
  br i1 %.not, label %drop_dups.exit, label %5

5:                                                ; preds = %2
  %6 = load ptr, ptr %1, align 8, !tbaa !27
  %7 = sext i32 %4 to i64
  %8 = getelementptr inbounds nuw i8, ptr %1, i64 20
  %9 = load i32, ptr %8, align 4, !tbaa !41
  %10 = icmp eq i32 %9, 0
  %11 = select i1 %10, ptr @cmp_pkt_sub_ts_pos, ptr @cmp_pkt_sub_pos_ts
  tail call void @qsort(ptr noundef %6, i64 noundef %7, i64 noundef 8, ptr noundef nonnull %11) #11
  %12 = load i32, ptr %3, align 8, !tbaa !23
  %13 = icmp sgt i32 %12, 0
  br i1 %13, label %.lr.ph, label %drop_dups.exit

.lr.ph:                                           ; preds = %5
  %14 = load ptr, ptr %1, align 8, !tbaa !27
  %15 = add nsw i32 %12, -1
  %16 = zext nneg i32 %15 to i64
  %wide.trip.count = zext nneg i32 %12 to i64
  br label %17

17:                                               ; preds = %.lr.ph, %34
  %indvars.iv = phi i64 [ 0, %.lr.ph ], [ %indvars.iv.next, %34 ]
  %18 = getelementptr inbounds nuw ptr, ptr %14, i64 %indvars.iv
  %19 = load ptr, ptr %18, align 8, !tbaa !28
  %20 = getelementptr inbounds nuw i8, ptr %19, i64 64
  %21 = load i64, ptr %20, align 8, !tbaa !42
  %22 = icmp slt i64 %21, 0
  %23 = icmp samesign ult i64 %indvars.iv, %16
  %or.cond = select i1 %22, i1 %23, i1 false
  br i1 %or.cond, label %24, label %34

24:                                               ; preds = %17
  %25 = getelementptr inbounds nuw i8, ptr %18, i64 8
  %26 = load ptr, ptr %25, align 8, !tbaa !28
  %27 = getelementptr inbounds nuw i8, ptr %26, i64 8
  %28 = load i64, ptr %27, align 8, !tbaa !43
  %29 = getelementptr inbounds nuw i8, ptr %19, i64 8
  %30 = load i64, ptr %29, align 8, !tbaa !43
  %31 = sub i64 %28, %30
  %32 = icmp sgt i64 %31, -1
  br i1 %32, label %33, label %34

33:                                               ; preds = %24
  store i64 %31, ptr %20, align 8, !tbaa !42
  br label %34

34:                                               ; preds = %17, %24, %33
  %indvars.iv.next = add nuw nsw i64 %indvars.iv, 1
  %exitcond.not = icmp eq i64 %indvars.iv.next, %wide.trip.count
  br i1 %exitcond.not, label %._crit_edge, label %17, !llvm.loop !44

._crit_edge:                                      ; preds = %34
  %35 = getelementptr inbounds nuw i8, ptr %1, i64 24
  %36 = load i32, ptr %35, align 8, !tbaa !45
  %.not26 = icmp eq i32 %36, 0
  %37 = icmp ne i32 %12, 1
  %or.cond33 = and i1 %37, %.not26
  br i1 %or.cond33, label %.lr.ph.i.outer, label %drop_dups.exit

.lr.ph.i.outer:                                   ; preds = %._crit_edge, %80
  %.ph = phi i32 [ %81, %80 ], [ %12, %._crit_edge ]
  %indvars.iv.i.ph = phi i64 [ %indvars.iv.next.i, %80 ], [ 1, %._crit_edge ]
  %.03338.i.ph = phi i32 [ %.1.i, %80 ], [ 0, %._crit_edge ]
  %38 = load ptr, ptr %1, align 8, !tbaa !27
  %39 = sext i32 %.ph to i64
  br label %.lr.ph.i

.lr.ph.i:                                         ; preds = %.lr.ph.i.outer, %.thread
  %indvars.iv.i = phi i64 [ %indvars.iv.next.i29, %.thread ], [ %indvars.iv.i.ph, %.lr.ph.i.outer ]
  %.03338.i = phi i32 [ 0, %.thread ], [ %.03338.i.ph, %.lr.ph.i.outer ]
  %40 = xor i32 %.03338.i, -1
  %41 = trunc nuw nsw i64 %indvars.iv.i to i32
  %42 = add i32 %41, %40
  %43 = sext i32 %42 to i64
  %44 = getelementptr inbounds ptr, ptr %38, i64 %43
  %45 = load ptr, ptr %44, align 8, !tbaa !28
  %46 = getelementptr inbounds nuw ptr, ptr %38, i64 %indvars.iv.i
  %47 = load ptr, ptr %46, align 8, !tbaa !28
  %48 = getelementptr inbounds nuw i8, ptr %47, i64 8
  %49 = load i64, ptr %48, align 8, !tbaa !43
  %50 = getelementptr inbounds nuw i8, ptr %45, i64 8
  %51 = load i64, ptr %50, align 8, !tbaa !43
  %52 = icmp eq i64 %49, %51
  br i1 %52, label %53, label %74

53:                                               ; preds = %.lr.ph.i
  %54 = getelementptr inbounds nuw i8, ptr %47, i64 64
  %55 = load i64, ptr %54, align 8, !tbaa !42
  %56 = getelementptr inbounds nuw i8, ptr %45, i64 64
  %57 = load i64, ptr %56, align 8, !tbaa !42
  %58 = icmp eq i64 %55, %57
  br i1 %58, label %59, label %74

59:                                               ; preds = %53
  %60 = getelementptr inbounds nuw i8, ptr %47, i64 36
  %61 = load i32, ptr %60, align 4, !tbaa !46
  %62 = getelementptr inbounds nuw i8, ptr %45, i64 36
  %63 = load i32, ptr %62, align 4, !tbaa !46
  %64 = icmp eq i32 %61, %63
  br i1 %64, label %65, label %74

65:                                               ; preds = %59
  %66 = getelementptr inbounds nuw i8, ptr %47, i64 24
  %67 = load ptr, ptr %66, align 8, !tbaa !35
  %68 = getelementptr inbounds nuw i8, ptr %45, i64 24
  %69 = load ptr, ptr %68, align 8, !tbaa !35
  %70 = tail call i32 @strcmp(ptr noundef nonnull dereferenceable(1) %67, ptr noundef nonnull dereferenceable(1) %69) #12
  %.not35.i = icmp eq i32 %70, 0
  br i1 %.not35.i, label %71, label %74

71:                                               ; preds = %65
  %72 = getelementptr inbounds nuw ptr, ptr %38, i64 %indvars.iv.i
  tail call void @av_packet_free(ptr noundef nonnull %72) #11
  %73 = add nsw i32 %.03338.i, 1
  %.pre.i = load i32, ptr %3, align 8, !tbaa !23
  %.pre = sext i32 %.pre.i to i64
  br label %80

74:                                               ; preds = %65, %59, %53, %.lr.ph.i
  %.not36.i = icmp eq i32 %.03338.i, 0
  br i1 %.not36.i, label %.thread, label %75

75:                                               ; preds = %74
  %76 = getelementptr inbounds nuw ptr, ptr %38, i64 %indvars.iv.i
  %77 = sub i32 %41, %.03338.i
  %78 = sext i32 %77 to i64
  %79 = getelementptr inbounds ptr, ptr %38, i64 %78
  store ptr %47, ptr %79, align 8, !tbaa !28
  store ptr null, ptr %76, align 8, !tbaa !28
  br label %80

80:                                               ; preds = %75, %71
  %.pre-phi = phi i64 [ %39, %75 ], [ %.pre, %71 ]
  %81 = phi i32 [ %.ph, %75 ], [ %.pre.i, %71 ]
  %.1.i = phi i32 [ %.03338.i, %75 ], [ %73, %71 ]
  %indvars.iv.next.i = add nuw nsw i64 %indvars.iv.i, 1
  %82 = icmp slt i64 %indvars.iv.next.i, %.pre-phi
  br i1 %82, label %.lr.ph.i.outer, label %._crit_edge.i, !llvm.loop !47

.thread:                                          ; preds = %74
  %indvars.iv.next.i29 = add nuw nsw i64 %indvars.iv.i, 1
  %83 = icmp slt i64 %indvars.iv.next.i29, %39
  br i1 %83, label %.lr.ph.i, label %drop_dups.exit, !llvm.loop !47

._crit_edge.i:                                    ; preds = %80
  %.not.i = icmp eq i32 %.1.i, 0
  br i1 %.not.i, label %drop_dups.exit, label %84

84:                                               ; preds = %._crit_edge.i
  %85 = sub nsw i32 %81, %.1.i
  store i32 %85, ptr %3, align 8, !tbaa !23
  tail call void (ptr, i32, ptr, ...) @av_log(ptr noundef %0, i32 noundef 24, ptr noundef nonnull @.str.5, i32 noundef %.1.i) #11
  br label %drop_dups.exit

drop_dups.exit:                                   ; preds = %.thread, %5, %84, %._crit_edge.i, %._crit_edge, %2
  ret void
}